target datalayout = "e-m:e-p270:32:32-p271:32:32-p272:64:64-i64:64-i128:128-f80:128-n8:16:32:64-S128"
target triple = "x86_64-pc-linux-gnu"

%struct._object = type { %union.anon, ptr }
%union.anon = type { i64 }
%struct._err_stackitem = type { ptr, ptr }
%struct._PyAsyncGenObject = type { %struct._object, ptr, ptr, ptr, %struct._err_stackitem, ptr, i8, i8, i8, i8, %struct._PyInterpreterFrame }
%struct._PyInterpreterFrame = type { %union._PyStackRef, ptr, %union._PyStackRef, ptr, ptr, ptr, ptr, ptr, ptr, i16, i8, i8, [1 x %union._PyStackRef] }
%union._PyStackRef = type { i64 }

@PyExc_RuntimeWarning = external global ptr, align 8
@.str.1 = private unnamed_addr constant [44 x i8] c"coroutine method %R of %R was never awaited\00", align 1

; Function Attrs: nounwind uwtable
define hidden void @_PyErr_WarnUnawaitedAgenMethod(ptr noundef %0, ptr noundef %1) #0 {
  %3 = alloca ptr, align 8
  %4 = alloca ptr, align 8
  %5 = alloca ptr, align 8
  store ptr %0, ptr %3, align 8, !tbaa !47
  store ptr %1, ptr %4, align 8, !tbaa !21
  call void @llvm.lifetime.start.p0(i64 8, ptr %5) #8
  %6 = call ptr @PyErr_GetRaisedException()
  store ptr %6, ptr %5, align 8, !tbaa !21
  %7 = load ptr, ptr %3, align 8, !tbaa !47
  %8 = load ptr, ptr @PyExc_RuntimeWarning, align 8, !tbaa !21
  %9 = load ptr, ptr %4, align 8, !tbaa !21
  %10 = load ptr, ptr %3, align 8, !tbaa !47
  %11 = getelementptr inbounds nuw %struct._PyAsyncGenObject, ptr %10, i32 0, i32 3
  %12 = load ptr, ptr %11, align 8, !tbaa !49
  %13 = call i32 (ptr, ptr, i64, ptr, ...) @_PyErr_WarnFormat(ptr noundef %7, ptr noundef %8, i64 noundef 1, ptr noundef @.str.1, ptr noundef %9, ptr noundef %12)
  %14 = icmp slt i32 %13, 0
  br i1 %14, label %15, label %17

15:                                               ; preds = %2
  %16 = load ptr, ptr %3, align 8, !tbaa !47
  call void @PyErr_WriteUnraisable(ptr noundef %16)
  br label %17

17:                                               ; preds = %15, %2
  %18 = load ptr, ptr %5, align 8, !tbaa !21
  call void @PyErr_SetRaisedException(ptr noundef %18)
  call void @llvm.lifetime.end.p0(i64 8, ptr %5) #8
  ret void
}