; Function Attrs: nounwind uwtable
define hidden void @_PyErr_WarnUnawaitedAgenMethod(ptr noundef %0, ptr noundef %1) local_unnamed_addr #0 {
  %3 = tail call ptr @PyErr_GetRaisedException() #7
  %4 = load ptr, ptr @PyExc_RuntimeWarning, align 8, !tbaa !14
  %5 = getelementptr inbounds nuw i8, ptr %0, i64 32
  %6 = load ptr, ptr %5, align 8, !tbaa !51
  %7 = tail call i32 (ptr, ptr, i64, ptr, ...) @_PyErr_WarnFormat(ptr noundef %0, ptr noundef %4, i64 poison, ptr noundef nonnull @.str.1, ptr noundef %1, ptr noundef %6)
  %8 = icmp slt i32 %7, 0
  br i1 %8, label %9, label %10

9:                                                ; preds = %2
  tail call void @PyErr_WriteUnraisable(ptr noundef nonnull %0) #7
  br label %10

10:                                               ; preds = %9, %2
  tail call void @PyErr_SetRaisedException(ptr noundef %3) #7
  ret void
}